; Function Attrs: nounwind uwtable
define ptr @l_Array_foldlMUnsafe_fold___at_Lean_Meta_LazyDiscrTree_MatchResult_appendResults___spec__3___rarg(ptr noundef readonly captures(none) %0, i64 noundef %1, i64 noundef %2, ptr noundef %3) local_unnamed_addr #1 {
  %.not32 = icmp eq i64 %1, %2
  br i1 %.not32, label %._crit_edge, label %.lr.ph

.lr.ph:                                           ; preds = %4
  %5 = getelementptr inbounds nuw i8, ptr %0, i64 24
  br label %6

6:                                                ; preds = %.lr.ph, %29
  %.01934 = phi i64 [ %1, %.lr.ph ], [ %30, %29 ]
  %.02133 = phi ptr [ %3, %.lr.ph ], [ %19, %29 ]
  %7 = getelementptr inbounds nuw [0 x ptr], ptr %5, i64 0, i64 %.01934
  %8 = load ptr, ptr %7, align 8, !tbaa !4
  %9 = ptrtoint ptr %8 to i64
  %10 = and i64 %9, 1
  %.not.i23 = icmp eq i64 %10, 0
  br i1 %.not.i23, label %11, label %lean_array_uget.exit

11:                                               ; preds = %6
  %.val.i.i = load i32, ptr %8, align 4, !tbaa !8
  %12 = icmp sgt i32 %.val.i.i, 0
  br i1 %12, label %13, label %15, !prof !11

13:                                               ; preds = %11
  %14 = add nuw i32 %.val.i.i, 1
  store i32 %14, ptr %8, align 4, !tbaa !8
  br label %lean_array_uget.exit

15:                                               ; preds = %11
  %.not.i.i = icmp eq i32 %.val.i.i, 0
  br i1 %.not.i.i, label %lean_array_uget.exit, label %16

16:                                               ; preds = %15
  tail call void @lean_inc_ref_cold(ptr noundef nonnull %8) #6
  br label %lean_array_uget.exit

lean_array_uget.exit:                             ; preds = %6, %13, %15, %16
  %17 = getelementptr i8, ptr %8, i64 8
  %.val = load i64, ptr %17, align 8, !tbaa !14
  %18 = tail call ptr @l_Array_mapMUnsafe_map___at_Lean_Meta_LazyDiscrTree_MatchResult_appendResults___spec__2___rarg(i64 noundef %.val, i64 noundef 0, ptr noundef %8)
  %19 = tail call ptr @l_Array_append___rarg(ptr noundef %.02133, ptr noundef %18) #6
  %20 = ptrtoint ptr %18 to i64
  %21 = and i64 %20, 1
  %.not31 = icmp eq i64 %21, 0
  br i1 %.not31, label %22, label %29

22:                                               ; preds = %lean_array_uget.exit
  %23 = load i32, ptr %18, align 4, !tbaa !8
  %24 = icmp sgt i32 %23, 1
  br i1 %24, label %25, label %27, !prof !11

25:                                               ; preds = %22
  %26 = add nsw i32 %23, -1
  store i32 %26, ptr %18, align 4, !tbaa !8
  br label %29

27:                                               ; preds = %22
  %.not.i = icmp eq i32 %23, 0
  br i1 %.not.i, label %29, label %28

28:                                               ; preds = %27
  tail call void @lean_dec_ref_cold(ptr noundef nonnull %18) #6
  br label %29

29:                                               ; preds = %lean_array_uget.exit, %25, %27, %28
  %30 = add i64 %.01934, 1
  %.not = icmp eq i64 %30, %2
  br i1 %.not, label %._crit_edge, label %6

._crit_edge:                                      ; preds = %29, %4
  %.021.lcssa = phi ptr [ %3, %4 ], [ %19, %29 ]
  ret ptr %.021.lcssa
}